ccopy_reg
_reconstructor
p0
(cgoogle.oauth2.credentials
Credentials
p1
c__builtin__
object
p2
Ntp3
Rp4
(dp5
S'_token_uri'
p6
Vhttps://oauth2.googleapis.com/token
p7
sS'_scopes'
p8
(lp9
S'https://www.googleapis.com/auth/contacts'
p10
asS'_id_token'
p11
NsS'token'
p12
Vya29.GlzIBrdv_3J21BLdJaOnBwQhdPfAittbeH_mH1Pt2kfprljSzqzL_Arbjbb_7XaPovw-F8xSFkfbU8yyKj46s6WyORf64FdRszqNDnUemNop34SETvv2posm3eLSdA
p13
sS'_refresh_token'
p14
V1/ZazPfKTnN2U8v7x9oqeq0L9SYsbzBhJDpLGX_BulQsw
p15
sS'_client_secret'
p16
VuHclNlIaNE4qCfW9jnyD3e9O
p17
sS'_client_id'
p18
V623597602425-q5c4b3cakbphkkiip2khp067rur1l6em.apps.googleusercontent.com
p19
sS'expiry'
p20
cdatetime
datetime
p21
(S'\x07\xe3\x03\n\x04:\x1e\tnH'
p22
tp23
Rp24
sb.